target datalayout = "e-m:e-p270:32:32-p271:32:32-p272:64:64-i64:64-i128:128-f80:128-n8:16:32:64-S128"
target triple = "x86_64-pc-linux-gnu"

%"class.Imf_3_4::ContextInitializer" = type { %struct._exr_context_initializer_v3, i32, ptr }
%struct._exr_context_initializer_v3 = type { i64, ptr, ptr, ptr, ptr, ptr, ptr, ptr, ptr, i32, i32, i32, i32, i32, float, i32, [4 x i8] }
%"struct.Imf_3_4::istream_holder" = type { %"class.std::mutex", ptr }
%"class.std::mutex" = type { %"class.std::__mutex_base" }
%"class.std::__mutex_base" = type { %union.pthread_mutex_t }
%union.pthread_mutex_t = type { %struct.__pthread_mutex_s }
%struct.__pthread_mutex_s = type { i32, i32, i32, i32, i32, i16, i16, %struct.__pthread_internal_list }
%struct.__pthread_internal_list = type { ptr, ptr }

; Function Attrs: mustprogress nounwind uwtable
define linkonce_odr hidden void @_ZNSt12__mutex_baseC2Ev(ptr noundef nonnull align 8 dereferenceable(40) %0) unnamed_addr #2 comdat align 2 {
  %2 = alloca ptr, align 8
  store ptr %0, ptr %2, align 8, !tbaa !49
  %3 = load ptr, ptr %2, align 8
  %4 = getelementptr inbounds nuw %"class.std::__mutex_base", ptr %3, i32 0, i32 0
  call void @llvm.memset.p0.i64(ptr align 8 %4, i8 0, i64 40, i1 false)
  %5 = getelementptr inbounds nuw %struct.__pthread_mutex_s, ptr %4, i32 0, i32 4
  store i32 0, ptr %5, align 8, !tbaa !51
  ret void
}

; Function Attrs: mustprogress nounwind uwtable
define linkonce_odr hidden void @_ZNSt5mutexC2Ev(ptr noundef nonnull align 8 dereferenceable(40) %0) unnamed_addr #2 comdat align 2 {
  %2 = alloca ptr, align 8
  store ptr %0, ptr %2, align 8, !tbaa !47
  %3 = load ptr, ptr %2, align 8
  call void @_ZNSt12__mutex_baseC2Ev(ptr noundef nonnull align 8 dereferenceable(40) %3) #15
  ret void
}

; Function Attrs: mustprogress nounwind uwtable
define linkonce_odr hidden void @_ZN7Imf_3_414istream_holderC2EPNS_7IStreamE(ptr noundef nonnull align 8 dereferenceable(48) %0, ptr noundef %1) unnamed_addr #2 comdat align 2 {
  %3 = alloca ptr, align 8
  %4 = alloca ptr, align 8
  store ptr %0, ptr %3, align 8, !tbaa !25
  store ptr %1, ptr %4, align 8, !tbaa !8
  %5 = load ptr, ptr %3, align 8
  %6 = getelementptr inbounds nuw %"struct.Imf_3_4::istream_holder", ptr %5, i32 0, i32 0
  call void @_ZNSt5mutexC2Ev(ptr noundef nonnull align 8 dereferenceable(40) %6) #15
  %7 = getelementptr inbounds nuw %"struct.Imf_3_4::istream_holder", ptr %5, i32 0, i32 1
  %8 = load ptr, ptr %4, align 8, !tbaa !8
  store ptr %8, ptr %7, align 8, !tbaa !27
  ret void
}

; Function Attrs: mustprogress uwtable
define noundef nonnull align 8 dereferenceable(120) ptr @_ZN7Imf_3_418ContextInitializer14setInputStreamEPNS_7IStreamE(ptr noundef nonnull align 8 dereferenceable(120) %0, ptr noundef %1) #0 align 2 personality ptr @__gxx_personality_v0 {
  %3 = alloca ptr, align 8
  %4 = alloca ptr, align 8
  %5 = alloca ptr, align 8
  %6 = alloca i32, align 4
  store ptr %0, ptr %3, align 8, !tbaa !3
  store ptr %1, ptr %4, align 8, !tbaa !8
  %7 = load ptr, ptr %3, align 8
  %8 = call noalias noundef nonnull ptr @_Znwm(i64 noundef 48) #13
  %9 = load ptr, ptr %4, align 8, !tbaa !8
  invoke void @_ZN7Imf_3_414istream_holderC2EPNS_7IStreamE(ptr noundef nonnull align 8 dereferenceable(48) %8, ptr noundef %9)
          to label %10 unwind label %21

10:                                               ; preds = %2
  %11 = getelementptr inbounds nuw %"class.Imf_3_4::ContextInitializer", ptr %7, i32 0, i32 0
  %12 = getelementptr inbounds nuw %struct._exr_context_initializer_v3, ptr %11, i32 0, i32 4
  store ptr %8, ptr %12, align 8, !tbaa !10
  %13 = load ptr, ptr %4, align 8, !tbaa !8
  %14 = load ptr, ptr %13, align 8, !tbaa !17
  %15 = getelementptr inbounds ptr, ptr %14, i64 9
  %16 = load ptr, ptr %15, align 8
  %17 = call noundef zeroext i1 %16(ptr noundef nonnull align 8 dereferenceable(40) %13)
  br i1 %17, label %18, label %25

18:                                               ; preds = %10
  %19 = getelementptr inbounds nuw %"class.Imf_3_4::ContextInitializer", ptr %7, i32 0, i32 0
  %20 = getelementptr inbounds nuw %struct._exr_context_initializer_v3, ptr %19, i32 0, i32 5
  store ptr @_ZN7Imf_3_4L23istream_threadsafe_readEPK19_priv_exr_context_tPvS3_mmPFiS2_iPKczE, ptr %20, align 8, !tbaa !19
  br label %28

21:                                               ; preds = %2
  %22 = landingpad { ptr, i32 }
          cleanup
  %23 = extractvalue { ptr, i32 } %22, 0
  store ptr %23, ptr %5, align 8
  %24 = extractvalue { ptr, i32 } %22, 1
  store i32 %24, ptr %6, align 4
  call void @_ZdlPvm(ptr noundef %8, i64 noundef 48) #14
  br label %38

25:                                               ; preds = %10
  %26 = getelementptr inbounds nuw %"class.Imf_3_4::ContextInitializer", ptr %7, i32 0, i32 0
  %27 = getelementptr inbounds nuw %struct._exr_context_initializer_v3, ptr %26, i32 0, i32 5
  store ptr @_ZN7Imf_3_4L24istream_nonparallel_readEPK19_priv_exr_context_tPvS3_mmPFiS2_iPKczE, ptr %27, align 8, !tbaa !19
  br label %28

28:                                               ; preds = %25, %18
  %29 = getelementptr inbounds nuw %"class.Imf_3_4::ContextInitializer", ptr %7, i32 0, i32 0
  %30 = getelementptr inbounds nuw %struct._exr_context_initializer_v3, ptr %29, i32 0, i32 6
  store ptr @_ZN7Imf_3_4L12istream_sizeEPK19_priv_exr_context_tPv, ptr %30, align 8, !tbaa !20
  %31 = getelementptr inbounds nuw %"class.Imf_3_4::ContextInitializer", ptr %7, i32 0, i32 0
  %32 = getelementptr inbounds nuw %struct._exr_context_initializer_v3, ptr %31, i32 0, i32 7
  store ptr null, ptr %32, align 8, !tbaa !21
  %33 = getelementptr inbounds nuw %"class.Imf_3_4::ContextInitializer", ptr %7, i32 0, i32 0
  %34 = getelementptr inbounds nuw %struct._exr_context_initializer_v3, ptr %33, i32 0, i32 8
  store ptr @_ZN7Imf_3_4L15istream_destroyEPK19_priv_exr_context_tPvi, ptr %34, align 8, !tbaa !22
  %35 = getelementptr inbounds nuw %"class.Imf_3_4::ContextInitializer", ptr %7, i32 0, i32 1
  store i32 0, ptr %35, align 8, !tbaa !23
  %36 = load ptr, ptr %4, align 8, !tbaa !8
  %37 = getelementptr inbounds nuw %"class.Imf_3_4::ContextInitializer", ptr %7, i32 0, i32 2
  store ptr %36, ptr %37, align 8, !tbaa !24
  ret ptr %7

38:                                               ; preds = %21
  %39 = load ptr, ptr %5, align 8
  %40 = load i32, ptr %6, align 4
  %41 = insertvalue { ptr, i32 } poison, ptr %39, 0
  %42 = insertvalue { ptr, i32 } %41, i32 %40, 1
  resume { ptr, i32 } %42
}