; Function Attrs: mustprogress uwtable
define noundef nonnull align 8 dereferenceable(120) ptr @_ZN7Imf_3_418ContextInitializer14setInputStreamEPNS_7IStreamE(ptr noundef nonnull returned writeonly align 8 dereferenceable(120) initializes((32, 72), (104, 108), (112, 120)) %0, ptr noundef %1) local_unnamed_addr #0 align 2 personality ptr @__gxx_personality_v0 {
  %3 = tail call noalias noundef nonnull dereferenceable(48) ptr @_Znwm(i64 noundef 48) #11
  tail call void @llvm.memset.p0.i64(ptr noundef nonnull align 8 dereferenceable(48) %3, i8 0, i64 40, i1 false)
  %4 = getelementptr inbounds nuw i8, ptr %3, i64 40
  store ptr %1, ptr %4, align 8, !tbaa !3
  %5 = getelementptr inbounds nuw i8, ptr %0, i64 32
  store ptr %3, ptr %5, align 8, !tbaa !11
  %6 = load ptr, ptr %1, align 8, !tbaa !18
  %7 = getelementptr inbounds nuw i8, ptr %6, i64 72
  %8 = load ptr, ptr %7, align 8
  %9 = tail call noundef zeroext i1 %8(ptr noundef nonnull align 8 dereferenceable(40) %1)
  %spec.select = select i1 %9, ptr @_ZN7Imf_3_4L23istream_threadsafe_readEPK19_priv_exr_context_tPvS3_mmPFiS2_iPKczE, ptr @_ZN7Imf_3_4L24istream_nonparallel_readEPK19_priv_exr_context_tPvS3_mmPFiS2_iPKczE
  %10 = getelementptr inbounds nuw i8, ptr %0, i64 40
  store ptr %spec.select, ptr %10, align 8, !tbaa !20
  %11 = getelementptr inbounds nuw i8, ptr %0, i64 48
  store ptr @_ZN7Imf_3_4L12istream_sizeEPK19_priv_exr_context_tPv, ptr %11, align 8, !tbaa !21
  %12 = getelementptr inbounds nuw i8, ptr %0, i64 56
  store ptr null, ptr %12, align 8, !tbaa !22
  %13 = getelementptr inbounds nuw i8, ptr %0, i64 64
  store ptr @_ZN7Imf_3_4L15istream_destroyEPK19_priv_exr_context_tPvi, ptr %13, align 8, !tbaa !23
  %14 = getelementptr inbounds nuw i8, ptr %0, i64 104
  store i32 0, ptr %14, align 8, !tbaa !24
  %15 = getelementptr inbounds nuw i8, ptr %0, i64 112
  store ptr %1, ptr %15, align 8, !tbaa !25
  ret ptr %0
}